	.file	"LAB1_task_3.cpp"
	.text
	.section	.rodata
	.type	_ZStL19piecewise_construct, @object
	.size	_ZStL19piecewise_construct, 1
_ZStL19piecewise_construct:
	.zero	1
	.section	.text._ZStanSt13_Ios_FmtflagsS_,"axG",@progbits,_ZStanSt13_Ios_FmtflagsS_,comdat
	.weak	_ZStanSt13_Ios_FmtflagsS_
	.type	_ZStanSt13_Ios_FmtflagsS_, @function
_ZStanSt13_Ios_FmtflagsS_:
.LFB1114:
	.cfi_startproc
	pushq	%rbp
	.cfi_def_cfa_offset 16
	.cfi_offset 6, -16
	movq	%rsp, %rbp
	.cfi_def_cfa_register 6
	movl	%edi, -4(%rbp)
	movl	%esi, -8(%rbp)
	movl	-4(%rbp), %eax
	andl	-8(%rbp), %eax
	popq	%rbp
	.cfi_def_cfa 7, 8
	ret
	.cfi_endproc
.LFE1114:
	.size	_ZStanSt13_Ios_FmtflagsS_, .-_ZStanSt13_Ios_FmtflagsS_
	.section	.text._ZStorSt13_Ios_FmtflagsS_,"axG",@progbits,_ZStorSt13_Ios_FmtflagsS_,comdat
	.weak	_ZStorSt13_Ios_FmtflagsS_
	.type	_ZStorSt13_Ios_FmtflagsS_, @function
_ZStorSt13_Ios_FmtflagsS_:
.LFB1115:
	.cfi_startproc
	pushq	%rbp
	.cfi_def_cfa_offset 16
	.cfi_offset 6, -16
	movq	%rsp, %rbp
	.cfi_def_cfa_register 6
	movl	%edi, -4(%rbp)
	movl	%esi, -8(%rbp)
	movl	-4(%rbp), %eax
	orl	-8(%rbp), %eax
	popq	%rbp
	.cfi_def_cfa 7, 8
	ret
	.cfi_endproc
.LFE1115:
	.size	_ZStorSt13_Ios_FmtflagsS_, .-_ZStorSt13_Ios_FmtflagsS_
	.section	.text._ZStcoSt13_Ios_Fmtflags,"axG",@progbits,_ZStcoSt13_Ios_Fmtflags,comdat
	.weak	_ZStcoSt13_Ios_Fmtflags
	.type	_ZStcoSt13_Ios_Fmtflags, @function
_ZStcoSt13_Ios_Fmtflags:
.LFB1117:
	.cfi_startproc
	pushq	%rbp
	.cfi_def_cfa_offset 16
	.cfi_offset 6, -16
	movq	%rsp, %rbp
	.cfi_def_cfa_register 6
	movl	%edi, -4(%rbp)
	movl	-4(%rbp), %eax
	notl	%eax
	popq	%rbp
	.cfi_def_cfa 7, 8
	ret
	.cfi_endproc
.LFE1117:
	.size	_ZStcoSt13_Ios_Fmtflags, .-_ZStcoSt13_Ios_Fmtflags
	.section	.text._ZStoRRSt13_Ios_FmtflagsS_,"axG",@progbits,_ZStoRRSt13_Ios_FmtflagsS_,comdat
	.weak	_ZStoRRSt13_Ios_FmtflagsS_
	.type	_ZStoRRSt13_Ios_FmtflagsS_, @function
_ZStoRRSt13_Ios_FmtflagsS_:
.LFB1118:
	.cfi_startproc
	pushq	%rbp
	.cfi_def_cfa_offset 16
	.cfi_offset 6, -16
	movq	%rsp, %rbp
	.cfi_def_cfa_register 6
	subq	$16, %rsp
	movq	%rdi, -8(%rbp)
	movl	%esi, -12(%rbp)
	movq	-8(%rbp), %rax
	movl	(%rax), %eax
	movl	-12(%rbp), %edx
	movl	%edx, %esi
	movl	%eax, %edi
	call	_ZStorSt13_Ios_FmtflagsS_
	movq	-8(%rbp), %rdx
	movl	%eax, (%rdx)
	movq	-8(%rbp), %rax
	leave
	.cfi_def_cfa 7, 8
	ret
	.cfi_endproc
.LFE1118:
	.size	_ZStoRRSt13_Ios_FmtflagsS_, .-_ZStoRRSt13_Ios_FmtflagsS_
	.section	.text._ZStaNRSt13_Ios_FmtflagsS_,"axG",@progbits,_ZStaNRSt13_Ios_FmtflagsS_,comdat
	.weak	_ZStaNRSt13_Ios_FmtflagsS_
	.type	_ZStaNRSt13_Ios_FmtflagsS_, @function
_ZStaNRSt13_Ios_FmtflagsS_:
.LFB1119:
	.cfi_startproc
	pushq	%rbp
	.cfi_def_cfa_offset 16
	.cfi_offset 6, -16
	movq	%rsp, %rbp
	.cfi_def_cfa_register 6
	subq	$16, %rsp
	movq	%rdi, -8(%rbp)
	movl	%esi, -12(%rbp)
	movq	-8(%rbp), %rax
	movl	(%rax), %eax
	movl	-12(%rbp), %edx
	movl	%edx, %esi
	movl	%eax, %edi
	call	_ZStanSt13_Ios_FmtflagsS_
	movq	-8(%rbp), %rdx
	movl	%eax, (%rdx)
	movq	-8(%rbp), %rax
	leave
	.cfi_def_cfa 7, 8
	ret
	.cfi_endproc
.LFE1119:
	.size	_ZStaNRSt13_Ios_FmtflagsS_, .-_ZStaNRSt13_Ios_FmtflagsS_
	.section	.text._ZNSt8ios_base4setfESt13_Ios_Fmtflags,"axG",@progbits,_ZNSt8ios_base4setfESt13_Ios_Fmtflags,comdat
	.align 2
	.weak	_ZNSt8ios_base4setfESt13_Ios_Fmtflags
	.type	_ZNSt8ios_base4setfESt13_Ios_Fmtflags, @function
_ZNSt8ios_base4setfESt13_Ios_Fmtflags:
.LFB1147:
	.cfi_startproc
	pushq	%rbp
	.cfi_def_cfa_offset 16
	.cfi_offset 6, -16
	movq	%rsp, %rbp
	.cfi_def_cfa_register 6
	subq	$32, %rsp
	movq	%rdi, -24(%rbp)
	movl	%esi, -28(%rbp)
	movq	-24(%rbp), %rax
	movl	24(%rax), %eax
	movl	%eax, -4(%rbp)
	movq	-24(%rbp), %rax
	leaq	24(%rax), %rdx
	movl	-28(%rbp), %eax
	movl	%eax, %esi
	movq	%rdx, %rdi
	call	_ZStoRRSt13_Ios_FmtflagsS_
	movl	-4(%rbp), %eax
	leave
	.cfi_def_cfa 7, 8
	ret
	.cfi_endproc
.LFE1147:
	.size	_ZNSt8ios_base4setfESt13_Ios_Fmtflags, .-_ZNSt8ios_base4setfESt13_Ios_Fmtflags
	.section	.text._ZNSt8ios_base4setfESt13_Ios_FmtflagsS0_,"axG",@progbits,_ZNSt8ios_base4setfESt13_Ios_FmtflagsS0_,comdat
	.align 2
	.weak	_ZNSt8ios_base4setfESt13_Ios_FmtflagsS0_
	.type	_ZNSt8ios_base4setfESt13_Ios_FmtflagsS0_, @function
_ZNSt8ios_base4setfESt13_Ios_FmtflagsS0_:
.LFB1148:
	.cfi_startproc
	pushq	%rbp
	.cfi_def_cfa_offset 16
	.cfi_offset 6, -16
	movq	%rsp, %rbp
	.cfi_def_cfa_register 6
	subq	$32, %rsp
	movq	%rdi, -24(%rbp)
	movl	%esi, -28(%rbp)
	movl	%edx, -32(%rbp)
	movq	-24(%rbp), %rax
	movl	24(%rax), %eax
	movl	%eax, -4(%rbp)
	movl	-32(%rbp), %eax
	movl	%eax, %edi
	call	_ZStcoSt13_Ios_Fmtflags
	movl	%eax, %edx
	movq	-24(%rbp), %rax
	addq	$24, %rax
	movl	%edx, %esi
	movq	%rax, %rdi
	call	_ZStaNRSt13_Ios_FmtflagsS_
	movl	-32(%rbp), %edx
	movl	-28(%rbp), %eax
	movl	%edx, %esi
	movl	%eax, %edi
	call	_ZStanSt13_Ios_FmtflagsS_
	movl	%eax, %edx
	movq	-24(%rbp), %rax
	addq	$24, %rax
	movl	%edx, %esi
	movq	%rax, %rdi
	call	_ZStoRRSt13_Ios_FmtflagsS_
	movl	-4(%rbp), %eax
	leave
	.cfi_def_cfa 7, 8
	ret
	.cfi_endproc
.LFE1148:
	.size	_ZNSt8ios_base4setfESt13_Ios_FmtflagsS0_, .-_ZNSt8ios_base4setfESt13_Ios_FmtflagsS0_
	.section	.text._ZSt9showpointRSt8ios_base,"axG",@progbits,_ZSt9showpointRSt8ios_base,comdat
	.weak	_ZSt9showpointRSt8ios_base
	.type	_ZSt9showpointRSt8ios_base, @function
_ZSt9showpointRSt8ios_base:
.LFB1162:
	.cfi_startproc
	pushq	%rbp
	.cfi_def_cfa_offset 16
	.cfi_offset 6, -16
	movq	%rsp, %rbp
	.cfi_def_cfa_register 6
	subq	$16, %rsp
	movq	%rdi, -8(%rbp)
	movq	-8(%rbp), %rax
	movl	$1024, %esi
	movq	%rax, %rdi
	call	_ZNSt8ios_base4setfESt13_Ios_Fmtflags
	movq	-8(%rbp), %rax
	leave
	.cfi_def_cfa 7, 8
	ret
	.cfi_endproc
.LFE1162:
	.size	_ZSt9showpointRSt8ios_base, .-_ZSt9showpointRSt8ios_base
	.section	.text._ZSt5fixedRSt8ios_base,"axG",@progbits,_ZSt5fixedRSt8ios_base,comdat
	.weak	_ZSt5fixedRSt8ios_base
	.type	_ZSt5fixedRSt8ios_base, @function
_ZSt5fixedRSt8ios_base:
.LFB1178:
	.cfi_startproc
	pushq	%rbp
	.cfi_def_cfa_offset 16
	.cfi_offset 6, -16
	movq	%rsp, %rbp
	.cfi_def_cfa_register 6
	subq	$16, %rsp
	movq	%rdi, -8(%rbp)
	movq	-8(%rbp), %rax
	movl	$260, %edx
	movl	$4, %esi
	movq	%rax, %rdi
	call	_ZNSt8ios_base4setfESt13_Ios_FmtflagsS0_
	movq	-8(%rbp), %rax
	leave
	.cfi_def_cfa 7, 8
	ret
	.cfi_endproc
.LFE1178:
	.size	_ZSt5fixedRSt8ios_base, .-_ZSt5fixedRSt8ios_base
	.local	_ZStL8__ioinit
	.comm	_ZStL8__ioinit,1,1
	.section	.rodata
	.type	_ZStL13allocator_arg, @object
	.size	_ZStL13allocator_arg, 1
_ZStL13allocator_arg:
	.zero	1
	.type	_ZStL6ignore, @object
	.size	_ZStL6ignore, 1
_ZStL6ignore:
	.zero	1
	.section	.text._ZSt12setprecisioni,"axG",@progbits,_ZSt12setprecisioni,comdat
	.weak	_ZSt12setprecisioni
	.type	_ZSt12setprecisioni, @function
_ZSt12setprecisioni:
.LFB2099:
	.cfi_startproc
	pushq	%rbp
	.cfi_def_cfa_offset 16
	.cfi_offset 6, -16
	movq	%rsp, %rbp
	.cfi_def_cfa_register 6
	movl	%edi, -4(%rbp)
	movl	-4(%rbp), %eax
	popq	%rbp
	.cfi_def_cfa 7, 8
	ret
	.cfi_endproc
.LFE2099:
	.size	_ZSt12setprecisioni, .-_ZSt12setprecisioni
	.section	.text._ZSt4setwi,"axG",@progbits,_ZSt4setwi,comdat
	.weak	_ZSt4setwi
	.type	_ZSt4setwi, @function
_ZSt4setwi:
.LFB2102:
	.cfi_startproc
	pushq	%rbp
	.cfi_def_cfa_offset 16
	.cfi_offset 6, -16
	movq	%rsp, %rbp
	.cfi_def_cfa_register 6
	movl	%edi, -4(%rbp)
	movl	-4(%rbp), %eax
	popq	%rbp
	.cfi_def_cfa 7, 8
	ret
	.cfi_endproc
.LFE2102:
	.size	_ZSt4setwi, .-_ZSt4setwi
	.section	.text._ZN5arrStC2Ev,"axG",@progbits,_ZN5arrStC5Ev,comdat
	.align 2
	.weak	_ZN5arrStC2Ev
	.type	_ZN5arrStC2Ev, @function
_ZN5arrStC2Ev:
.LFB2117:
	.cfi_startproc
	pushq	%rbp
	.cfi_def_cfa_offset 16
	.cfi_offset 6, -16
	movq	%rsp, %rbp
	.cfi_def_cfa_register 6
	movq	%rdi, -8(%rbp)
	movq	-8(%rbp), %rax
	movl	$914, (%rax)
	movq	-8(%rbp), %rax
	movl	$915, 4(%rax)
	movq	-8(%rbp), %rax
	movl	$916, 8(%rax)
	movq	-8(%rbp), %rax
	movl	$917, 12(%rax)
	movq	-8(%rbp), %rax
	movl	$918, 16(%rax)
	movq	-8(%rbp), %rax
	movl	$919, 20(%rax)
	movq	-8(%rbp), %rax
	movl	$920, 24(%rax)
	movq	-8(%rbp), %rax
	movl	$921, 28(%rax)
	movq	-8(%rbp), %rax
	movl	$922, 32(%rax)
	movq	-8(%rbp), %rax
	movl	$842, 36(%rax)
	movq	-8(%rbp), %rax
	movl	$416, 40(%rax)
	movq	-8(%rbp), %rax
	movl	$127, 44(%rax)
	movq	-8(%rbp), %rax
	movl	$514, 48(%rax)
	movq	-8(%rbp), %rax
	movl	$437, 52(%rax)
	movq	-8(%rbp), %rax
	movl	$269, 56(%rax)
	movq	-8(%rbp), %rax
	movl	$97, 60(%rax)
	movq	-8(%rbp), %rax
	movl	$492, 64(%rax)
	movq	-8(%rbp), %rax
	movl	$212, 68(%rax)
	movq	-8(%rbp), %rax
	movsd	.LC0(%rip), %xmm0
	movsd	%xmm0, 72(%rax)
	movq	-8(%rbp), %rax
	movsd	.LC1(%rip), %xmm0
	movsd	%xmm0, 80(%rax)
	movq	-8(%rbp), %rax
	movsd	.LC2(%rip), %xmm0
	movsd	%xmm0, 88(%rax)
	movq	-8(%rbp), %rax
	movsd	.LC3(%rip), %xmm0
	movsd	%xmm0, 96(%rax)
	movq	-8(%rbp), %rax
	movsd	.LC4(%rip), %xmm0
	movsd	%xmm0, 104(%rax)
	movq	-8(%rbp), %rax
	movsd	.LC5(%rip), %xmm0
	movsd	%xmm0, 112(%rax)
	movq	-8(%rbp), %rax
	movsd	.LC1(%rip), %xmm0
	movsd	%xmm0, 120(%rax)
	movq	-8(%rbp), %rax
	movsd	.LC1(%rip), %xmm0
	movsd	%xmm0, 128(%rax)
	movq	-8(%rbp), %rax
	movsd	.LC3(%rip), %xmm0
	movsd	%xmm0, 136(%rax)
	nop
	popq	%rbp
	.cfi_def_cfa 7, 8
	ret
	.cfi_endproc
.LFE2117:
	.size	_ZN5arrStC2Ev, .-_ZN5arrStC2Ev
	.weak	_ZN5arrStC1Ev
	.set	_ZN5arrStC1Ev,_ZN5arrStC2Ev
	.globl	as
	.bss
	.align 32
	.type	as, @object
	.size	as, 216
as:
	.zero	216
	.text
	.globl	main
	.type	main, @function
main:
.LFB2119:
	.cfi_startproc
	pushq	%rbp
	.cfi_def_cfa_offset 16
	.cfi_offset 6, -16
	movq	%rsp, %rbp
	.cfi_def_cfa_register 6
	movl	$9, %ecx
	leaq	144+as(%rip), %rdx
	leaq	72+as(%rip), %rsi
	leaq	36+as(%rip), %rdi
	call	_Z9calcSalesPKiPKdPdi
	movl	$9, %edx
	leaq	144+as(%rip), %rsi
	leaq	as(%rip), %rdi
	call	_Z8dualSortPiPdi
	movl	$2, %edi
	call	_ZSt12setprecisioni
	movl	%eax, %esi
	leaq	_ZSt4cout(%rip), %rdi
	call	_ZStlsIcSt11char_traitsIcEERSt13basic_ostreamIT_T0_ES6_St13_Setprecision@PLT
	leaq	_ZSt5fixedRSt8ios_base(%rip), %rsi
	movq	%rax, %rdi
	call	_ZNSolsEPFRSt8ios_baseS0_E@PLT
	leaq	_ZSt9showpointRSt8ios_base(%rip), %rsi
	movq	%rax, %rdi
	call	_ZNSolsEPFRSt8ios_baseS0_E@PLT
	movl	$9, %edx
	leaq	as(%rip), %rsi
	leaq	144+as(%rip), %rdi
	call	_Z9showOrderPKdPKii
	movl	$9, %edx
	leaq	36+as(%rip), %rsi
	leaq	144+as(%rip), %rdi
	call	_Z10showTotalsPKdPKii
	movl	$0, %eax
	popq	%rbp
	.cfi_def_cfa 7, 8
	ret
	.cfi_endproc
.LFE2119:
	.size	main, .-main
	.globl	_Z9calcSalesPKiPKdPdi
	.type	_Z9calcSalesPKiPKdPdi, @function
_Z9calcSalesPKiPKdPdi:
.LFB2120:
	.cfi_startproc
	pushq	%rbp
	.cfi_def_cfa_offset 16
	.cfi_offset 6, -16
	movq	%rsp, %rbp
	.cfi_def_cfa_register 6
	movq	%rdi, -24(%rbp)
	movq	%rsi, -32(%rbp)
	movq	%rdx, -40(%rbp)
	movl	%ecx, -44(%rbp)
	movl	$0, -4(%rbp)
.L28:
	movl	-4(%rbp), %eax
	cmpl	-44(%rbp), %eax
	jge	.L29
	movl	-4(%rbp), %eax
	cltq
	leaq	0(,%rax,4), %rdx
	movq	-24(%rbp), %rax
	addq	%rdx, %rax
	movl	(%rax), %eax
	cvtsi2sdl	%eax, %xmm1
	movl	-4(%rbp), %eax
	cltq
	leaq	0(,%rax,8), %rdx
	movq	-32(%rbp), %rax
	addq	%rdx, %rax
	movsd	(%rax), %xmm0
	movl	-4(%rbp), %eax
	cltq
	leaq	0(,%rax,8), %rdx
	movq	-40(%rbp), %rax
	addq	%rdx, %rax
	mulsd	%xmm1, %xmm0
	movsd	%xmm0, (%rax)
	addl	$1, -4(%rbp)
	jmp	.L28
.L29:
	nop
	popq	%rbp
	.cfi_def_cfa 7, 8
	ret
	.cfi_endproc
.LFE2120:
	.size	_Z9calcSalesPKiPKdPdi, .-_Z9calcSalesPKiPKdPdi
	.globl	_Z8dualSortPiPdi
	.type	_Z8dualSortPiPdi, @function
_Z8dualSortPiPdi:
.LFB2121:
	.cfi_startproc
	pushq	%rbp
	.cfi_def_cfa_offset 16
	.cfi_offset 6, -16
	movq	%rsp, %rbp
	.cfi_def_cfa_register 6
	movq	%rdi, -40(%rbp)
	movq	%rsi, -48(%rbp)
	movl	%edx, -52(%rbp)
	movl	$0, -4(%rbp)
.L36:
	movl	-52(%rbp), %eax
	subl	$1, %eax
	cmpl	%eax, -4(%rbp)
	jge	.L38
	movl	-4(%rbp), %eax
	movl	%eax, -8(%rbp)
	movl	-4(%rbp), %eax
	cltq
	leaq	0(,%rax,8), %rdx
	movq	-48(%rbp), %rax
	addq	%rdx, %rax
	movsd	(%rax), %xmm0
	movsd	%xmm0, -24(%rbp)
	movl	-4(%rbp), %eax
	cltq
	leaq	0(,%rax,4), %rdx
	movq	-40(%rbp), %rax
	addq	%rdx, %rax
	movl	(%rax), %eax
	movl	%eax, -12(%rbp)
	movl	-4(%rbp), %eax
	addl	$1, %eax
	movl	%eax, -28(%rbp)
.L35:
	movl	-28(%rbp), %eax
	cmpl	-52(%rbp), %eax
	jge	.L32
	movl	-28(%rbp), %eax
	cltq
	leaq	0(,%rax,8), %rdx
	movq	-48(%rbp), %rax
	addq	%rdx, %rax
	movsd	(%rax), %xmm0
	comisd	-24(%rbp), %xmm0
	jbe	.L33
	movl	-28(%rbp), %eax
	cltq
	leaq	0(,%rax,8), %rdx
	movq	-48(%rbp), %rax
	addq	%rdx, %rax
	movsd	(%rax), %xmm0
	movsd	%xmm0, -24(%rbp)
	movl	-28(%rbp), %eax
	cltq
	leaq	0(,%rax,4), %rdx
	movq	-40(%rbp), %rax
	addq	%rdx, %rax
	movl	(%rax), %eax
	movl	%eax, -12(%rbp)
	movl	-28(%rbp), %eax
	movl	%eax, -8(%rbp)
.L33:
	addl	$1, -28(%rbp)
	jmp	.L35
.L32:
	movl	-4(%rbp), %eax
	cltq
	leaq	0(,%rax,8), %rdx
	movq	-48(%rbp), %rax
	addq	%rax, %rdx
	movl	-8(%rbp), %eax
	cltq
	leaq	0(,%rax,8), %rcx
	movq	-48(%rbp), %rax
	addq	%rcx, %rax
	movsd	(%rdx), %xmm0
	movsd	%xmm0, (%rax)
	movl	-4(%rbp), %eax
	cltq
	leaq	0(,%rax,4), %rdx
	movq	-40(%rbp), %rax
	addq	%rdx, %rax
	movl	-8(%rbp), %edx
	movslq	%edx, %rdx
	leaq	0(,%rdx,4), %rcx
	movq	-40(%rbp), %rdx
	addq	%rcx, %rdx
	movl	(%rax), %eax
	movl	%eax, (%rdx)
	movl	-4(%rbp), %eax
	cltq
	leaq	0(,%rax,8), %rdx
	movq	-48(%rbp), %rax
	addq	%rdx, %rax
	movsd	-24(%rbp), %xmm0
	movsd	%xmm0, (%rax)
	movl	-4(%rbp), %eax
	cltq
	leaq	0(,%rax,4), %rdx
	movq	-40(%rbp), %rax
	addq	%rax, %rdx
	movl	-12(%rbp), %eax
	movl	%eax, (%rdx)
	addl	$1, -4(%rbp)
	jmp	.L36
.L38:
	nop
	popq	%rbp
	.cfi_def_cfa 7, 8
	ret
	.cfi_endproc
.LFE2121:
	.size	_Z8dualSortPiPdi, .-_Z8dualSortPiPdi
	.section	.rodata
.LC6:
	.string	"Product Number\tSales\n"
	.align 8
.LC7:
	.string	"----------------------------------\n"
.LC8:
	.string	"\t\t$"
	.text
	.globl	_Z9showOrderPKdPKii
	.type	_Z9showOrderPKdPKii, @function
_Z9showOrderPKdPKii:
.LFB2122:
	.cfi_startproc
	pushq	%rbp
	.cfi_def_cfa_offset 16
	.cfi_offset 6, -16
	movq	%rsp, %rbp
	.cfi_def_cfa_register 6
	subq	$48, %rsp
	movq	%rdi, -24(%rbp)
	movq	%rsi, -32(%rbp)
	movl	%edx, -36(%rbp)
	leaq	.LC6(%rip), %rsi
	leaq	_ZSt4cout(%rip), %rdi
	call	_ZStlsISt11char_traitsIcEERSt13basic_ostreamIcT_ES5_PKc@PLT
	leaq	.LC7(%rip), %rsi
	leaq	_ZSt4cout(%rip), %rdi
	call	_ZStlsISt11char_traitsIcEERSt13basic_ostreamIcT_ES5_PKc@PLT
	movl	$0, -4(%rbp)
.L41:
	movl	-4(%rbp), %eax
	cmpl	-36(%rbp), %eax
	jge	.L40
	movl	-4(%rbp), %eax
	cltq
	leaq	0(,%rax,4), %rdx
	movq	-32(%rbp), %rax
	addq	%rdx, %rax
	movl	(%rax), %eax
	movl	%eax, %esi
	leaq	_ZSt4cout(%rip), %rdi
	call	_ZNSolsEi@PLT
	leaq	.LC8(%rip), %rsi
	movq	%rax, %rdi
	call	_ZStlsISt11char_traitsIcEERSt13basic_ostreamIcT_ES5_PKc@PLT
	movl	$8, %edi
	call	_ZSt4setwi
	movl	%eax, %esi
	leaq	_ZSt4cout(%rip), %rdi
	call	_ZStlsIcSt11char_traitsIcEERSt13basic_ostreamIT_T0_ES6_St5_Setw@PLT
	movq	%rax, %rdx
	movl	-4(%rbp), %eax
	cltq
	leaq	0(,%rax,8), %rcx
	movq	-24(%rbp), %rax
	addq	%rcx, %rax
	movq	(%rax), %rax
	movq	%rax, %xmm0
	movq	%rdx, %rdi
	call	_ZNSolsEd@PLT
	movq	%rax, %rdx
	movq	_ZSt4endlIcSt11char_traitsIcEERSt13basic_ostreamIT_T0_ES6_@GOTPCREL(%rip), %rax
	movq	%rax, %rsi
	movq	%rdx, %rdi
	call	_ZNSolsEPFRSoS_E@PLT
	addl	$1, -4(%rbp)
	jmp	.L41
.L40:
	movq	_ZSt4endlIcSt11char_traitsIcEERSt13basic_ostreamIT_T0_ES6_@GOTPCREL(%rip), %rax
	movq	%rax, %rsi
	leaq	_ZSt4cout(%rip), %rdi
	call	_ZNSolsEPFRSoS_E@PLT
	nop
	leave
	.cfi_def_cfa 7, 8
	ret
	.cfi_endproc
.LFE2122:
	.size	_Z9showOrderPKdPKii, .-_Z9showOrderPKdPKii
	.section	.rodata
.LC10:
	.string	"Total units Sold:  "
.LC11:
	.string	"Total sales:      $"
	.text
	.globl	_Z10showTotalsPKdPKii
	.type	_Z10showTotalsPKdPKii, @function
_Z10showTotalsPKdPKii:
.LFB2123:
	.cfi_startproc
	pushq	%rbp
	.cfi_def_cfa_offset 16
	.cfi_offset 6, -16
	movq	%rsp, %rbp
	.cfi_def_cfa_register 6
	subq	$64, %rsp
	movq	%rdi, -40(%rbp)
	movq	%rsi, -48(%rbp)
	movl	%edx, -52(%rbp)
	movl	$0, -4(%rbp)
	pxor	%xmm0, %xmm0
	movsd	%xmm0, -16(%rbp)
	movl	$0, -20(%rbp)
.L44:
	movl	-20(%rbp), %eax
	cmpl	-52(%rbp), %eax
	jge	.L43
	movl	-20(%rbp), %eax
	cltq
	leaq	0(,%rax,4), %rdx
	movq	-48(%rbp), %rax
	addq	%rdx, %rax
	movl	(%rax), %eax
	addl	%eax, -4(%rbp)
	movl	-20(%rbp), %eax
	cltq
	leaq	0(,%rax,8), %rdx
	movq	-40(%rbp), %rax
	addq	%rdx, %rax
	movsd	(%rax), %xmm0
	movsd	-16(%rbp), %xmm1
	addsd	%xmm1, %xmm0
	movsd	%xmm0, -16(%rbp)
	addl	$1, -20(%rbp)
	jmp	.L44
.L43:
	leaq	.LC10(%rip), %rsi
	leaq	_ZSt4cout(%rip), %rdi
	call	_ZStlsISt11char_traitsIcEERSt13basic_ostreamIcT_ES5_PKc@PLT
	movq	%rax, %rdx
	movl	-4(%rbp), %eax
	movl	%eax, %esi
	movq	%rdx, %rdi
	call	_ZNSolsEi@PLT
	movq	%rax, %rdx
	movq	_ZSt4endlIcSt11char_traitsIcEERSt13basic_ostreamIT_T0_ES6_@GOTPCREL(%rip), %rax
	movq	%rax, %rsi
	movq	%rdx, %rdi
	call	_ZNSolsEPFRSoS_E@PLT
	leaq	.LC11(%rip), %rsi
	leaq	_ZSt4cout(%rip), %rdi
	call	_ZStlsISt11char_traitsIcEERSt13basic_ostreamIcT_ES5_PKc@PLT
	movq	%rax, %rdx
	movq	-16(%rbp), %rax
	movq	%rax, %xmm0
	movq	%rdx, %rdi
	call	_ZNSolsEd@PLT
	movq	%rax, %rdx
	movq	_ZSt4endlIcSt11char_traitsIcEERSt13basic_ostreamIT_T0_ES6_@GOTPCREL(%rip), %rax
	movq	%rax, %rsi
	movq	%rdx, %rdi
	call	_ZNSolsEPFRSoS_E@PLT
	nop
	leave
	.cfi_def_cfa 7, 8
	ret
	.cfi_endproc
.LFE2123:
	.size	_Z10showTotalsPKdPKii, .-_Z10showTotalsPKdPKii
	.type	_Z41__static_initialization_and_destruction_0ii, @function
_Z41__static_initialization_and_destruction_0ii:
.LFB2630:
	.cfi_startproc
	pushq	%rbp
	.cfi_def_cfa_offset 16
	.cfi_offset 6, -16
	movq	%rsp, %rbp
	.cfi_def_cfa_register 6
	subq	$16, %rsp
	movl	%edi, -4(%rbp)
	movl	%esi, -8(%rbp)
	cmpl	$1, -4(%rbp)
	jne	.L47
	cmpl	$65535, -8(%rbp)
	jne	.L47
	leaq	_ZStL8__ioinit(%rip), %rdi
	call	_ZNSt8ios_base4InitC1Ev@PLT
	leaq	__dso_handle(%rip), %rdx
	leaq	_ZStL8__ioinit(%rip), %rsi
	movq	_ZNSt8ios_base4InitD1Ev@GOTPCREL(%rip), %rax
	movq	%rax, %rdi
	call	__cxa_atexit@PLT
	leaq	as(%rip), %rdi
	call	_ZN5arrStC1Ev
.L47:
	nop
	leave
	.cfi_def_cfa 7, 8
	ret
	.cfi_endproc
.LFE2630:
	.size	_Z41__static_initialization_and_destruction_0ii, .-_Z41__static_initialization_and_destruction_0ii
	.type	_GLOBAL__sub_I_as, @function
_GLOBAL__sub_I_as:
.LFB2631:
	.cfi_startproc
	pushq	%rbp
	.cfi_def_cfa_offset 16
	.cfi_offset 6, -16
	movq	%rsp, %rbp
	.cfi_def_cfa_register 6
	movl	$65535, %esi
	movl	$1, %edi
	call	_Z41__static_initialization_and_destruction_0ii
	popq	%rbp
	.cfi_def_cfa 7, 8
	ret
	.cfi_endproc
.LFE2631:
	.size	_GLOBAL__sub_I_as, .-_GLOBAL__sub_I_as
	.section	.init_array,"aw"
	.align 8
	.quad	_GLOBAL__sub_I_as
	.section	.rodata
	.align 8
.LC0:
	.long	1717986918
	.long	1076487782
	.align 8
.LC1:
	.long	1717986918
	.long	1076749926
	.align 8
.LC2:
	.long	858993459
	.long	1077080883
	.align 8
.LC3:
	.long	858993459
	.long	1076949811
	.align 8
.LC4:
	.long	858993459
	.long	1077277491
	.align 8
.LC5:
	.long	858993459
	.long	1077932851
	.hidden	__dso_handle
	.ident	"GCC: (Debian 9.2.1-21) 9.2.1 20191130"
	.section	.note.GNU-stack,"",@progbits
